; Function Attrs: mustprogress nounwind uwtable
define hidden noundef i32 @_ZN15CgroupSubsystem22active_processor_countEv(ptr noundef nonnull align 8 dereferenceable(8) %0) local_unnamed_addr #0 align 2 {
  %2 = load ptr, ptr %0, align 8
  %3 = getelementptr inbounds i8, ptr %2, i64 56
  %4 = load ptr, ptr %3, align 8
  %5 = tail call noundef ptr %4(ptr noundef nonnull align 8 dereferenceable(8) %0) #13
  %6 = getelementptr inbounds i8, ptr %5, i64 8
  %7 = load ptr, ptr %6, align 8
  %8 = tail call noundef i64 @_ZN2os15elapsed_counterEv() #13
  %9 = getelementptr inbounds i8, ptr %7, i64 8
  %10 = load volatile i64, ptr %9, align 8
  %11 = icmp sgt i64 %8, %10
  br i1 %11, label %17, label %12

12:                                               ; preds = %1
  %13 = load volatile i64, ptr %7, align 8
  %14 = trunc i64 %13 to i32
  %15 = load volatile ptr, ptr getelementptr inbounds (i8, ptr @_ZN16LogTagSetMappingILN6LogTag4typeE105ELS1_25ELS1_0ELS1_0ELS1_0ELS1_0EE7_tagsetE, i64 48), align 8
  %.not = icmp eq ptr %15, null
  br i1 %.not, label %24, label %16

16:                                               ; preds = %12
  tail call void (ptr, ...) @_ZN7LogImplILN6LogTag4typeE105ELS1_25ELS1_0ELS1_0ELS1_0ELS1_0EE5writeILN8LogLevel4typeE1EEEvPKcz(ptr noundef nonnull @.str.35, i32 noundef %14)
  br label %24

17:                                               ; preds = %1
  %18 = tail call noundef i32 @_ZN2os5Linux22active_processor_countEv() #13
  %19 = load ptr, ptr %5, align 8
  %20 = tail call noundef i32 @_ZN10CgroupUtil15processor_countEP19CgroupCpuControlleri(ptr noundef %19, i32 noundef %18) #13
  %21 = sext i32 %20 to i64
  store volatile i64 %21, ptr %7, align 8
  %22 = tail call noundef i64 @_ZN2os15elapsed_counterEv() #13
  %23 = add nsw i64 %22, 20000000
  store volatile i64 %23, ptr %9, align 8
  br label %24

24:                                               ; preds = %16, %12, %17
  %.0 = phi i32 [ %20, %17 ], [ %14, %12 ], [ %14, %16 ]
  ret i32 %.0
}